
 SHELL32

 Start         Length     Name                   Class
 0001:00000000 0000041F8H CODE32                 CODE 32-bit
	at offset 00000000 00439H bytes from F:\SOURCE\Odin32\src\shell32\shell32.obj (shell32.cpp)
	at offset 0000043c 00CCEH bytes from F:\SOURCE\Odin32\src\shell32\sh.obj (sh.cpp)
	at offset 0000110c 00042H bytes from F:\SOURCE\Odin32\src\shell32\she.obj (she.cpp)
	at offset 00001150 000BCH bytes from F:\SOURCE\Odin32\src\shell32\drag.obj (drag.cpp)
	at offset 0000120c 00103H bytes from F:\SOURCE\Odin32\src\shell32\initterm.obj (initterm.cpp)
	at offset 00001310 00DB6H bytes from F:\SOURCE\Odin32\src\shell32\misc.obj (misc.cpp)
	at offset 000020c8 0030AH bytes from F:\SOURCE\Odin32\src\shell32\ordinal.obj (ordinal.cpp)
	at offset 000023d4 00194H bytes from F:\SOURCE\Odin32\src\shell32\unknown.obj (unknown.cpp)
	at offset 00002568 01B7BH bytes from F:\SOURCE\Odin32\src\shell32\path.obj (path.cpp)
	at offset 000040e4 00111H bytes from F:\IBMCPP\LIB\cppom30o.lib (D:\SwordCSD\crt\ctordtor.c)

 0001:000041F8 000000000H EH_CODE                CODE 32-bit

 0002:00000000 000002560H CONST32_RO             CONST 32-bit
	at offset 00000000 00286H bytes from F:\SOURCE\Odin32\src\shell32\shell32.obj (shell32.cpp)
	at offset 00000288 00FBDH bytes from F:\SOURCE\Odin32\src\shell32\sh.obj (sh.cpp)
	at offset 00001248 00079H bytes from F:\SOURCE\Odin32\src\shell32\she.obj (she.cpp)
	at offset 000012c4 00168H bytes from F:\SOURCE\Odin32\src\shell32\drag.obj (drag.cpp)
	at offset 0000142c 00A46H bytes from F:\SOURCE\Odin32\src\shell32\misc.obj (misc.cpp)
	at offset 00001e74 002B2H bytes from F:\SOURCE\Odin32\src\shell32\ordinal.obj (ordinal.cpp)
	at offset 00002128 00218H bytes from F:\SOURCE\Odin32\src\shell32\unknown.obj (unknown.cpp)
	at offset 00002340 0021FH bytes from F:\SOURCE\Odin32\src\shell32\path.obj (path.cpp)

 0003:00000000 000000000H EH_DATA                CONST 32-bit

 0003:00000000 000000000H _VFT                   CONST 32-bit

 0003:00000000 000000008H DATA32                 DATA 32-bit
	at offset 00000000 00004H bytes from F:\IBMCPP\LIB\cppom30o.lib (D:\SwordCSD\crt\ctordtor.c)
	at offset 00000004 00004H bytes from F:\IBMCPP\LIB\cppom30o.lib (D:\SwordCSD\crt\dllstub.asm)

 0003:00000008 000000000H CTOR_DTOR1             DATA 32-bit

 0003:00000008 000000000H CTOR_DTOR2             DATA 32-bit

 0003:00000008 000000000H CTOR_DTOR3             DATA 32-bit

 0003:00000008 000000000H EDC1                   EDC_CLASS 32-bit

 0003:00000008 000000000H EDC2                   EDC_CLASS 32-bit

 0003:00000008 000000000H EDC3                   EDC_CLASS 32-bit

 0003:00000008 00000000CH BSS32                  BSS 32-bit
	at offset 00000000 00004H bytes from F:\SOURCE\Odin32\src\shell32\sh.obj (sh.cpp)
	at offset 00000004 00008H bytes from F:\SOURCE\Odin32\src\shell32\path.obj (path.cpp)

 0003:00000014 000000004H c_common               BSS 32-bit


 Origin   Group
 0000:0   FLAT
 0003:0   DGROUP

 Address       Export                  Alias

 0001:00001970 ArrangeWindows          _ArrangeWindows@20
 0001:00002030 CheckEscapesA           _CheckEscapesA@8
 0001:00002044 CheckEscapesW           _CheckEscapesW@8
 0001:00001310 CommandLineToArgvW      _CommandLineToArgvW@8
 0001:00001C0C Control_FillCache_RunDLL  _Control_FillCache_RunDLL@16
 0001:000019B4 DAD_ShowDragImage       _DAD_ShowDragImage@4
 0001:00001E28 DoEnvironmentSubstA     _DoEnvironmentSubstA@8
 0001:00002018 DoEnvironmentSubstW     _DoEnvironmentSubstW@8
 0001:00001150 DragAcceptFiles         _DragAcceptFiles@8
 0001:0000116C DragFinish              _DragFinish@4
 0001:00001184 DragQueryFile           _DragQueryFileA@16
 0001:00001184 DragQueryFileA          _DragQueryFileA@16
 0001:000011A8 DragQueryFileAorW       _DragQueryFileAorW@16
 0001:000011CC DragQueryFileW          _DragQueryFileW@16
 0001:000011F0 DragQueryPoint          _DragQueryPoint@8
 0001:00001B70 DriveType               _DriveType@4
 0001:00002058 DuplicateIcon           _DuplicateIcon@4
 0001:00001930 ExitWindowsDialog       _ExitWindowsDialog@4
 0001:000015B4 ExtractAssociatedIconA  _ExtractAssociatedIconA@12
 0001:0000169C ExtractAssociatedIconExA  _ExtractAssociatedIconExA@12
 0001:00001718 ExtractAssociatedIconExW  _ExtractAssociatedIconExW@12
 0001:000016C0 ExtractAssociatedIconW  _ExtractAssociatedIconW@12
 0001:000014B8 ExtractIconA            _ExtractIconA@12
 0001:00001524 ExtractIconEx           _ExtractIconExA@20
 0001:00001524 ExtractIconExA          _ExtractIconExA@20
 0001:0000154C ExtractIconExW          _ExtractIconExW@20
 0001:00001D58 ExtractIconResInfoA     _ExtractIconResInfoA@0
 0001:00001D6C ExtractIconResInfoW     _ExtractIconResInfoW@0
 0001:000014D8 ExtractIconW            _ExtractIconW@12
 0001:00001A08 FileIconInit            _FileIconInit@4
 0001:00001574 FindExecutableA         _FindExecutableA@12
 0001:00001594 FindExecutableW         _FindExecutableW@12
 0001:00001D18 FreeIconList            _FreeIconList@4
 0001:00001834 GetFileNameFromBrowse   _GetFileNameFromBrowse@28
 0001:00002240 ILClone                 _ILClone@4
 0001:00002298 ILCombine               _ILCombine@8
 0001:000020C8 ILFindLastID            _ILFindLastID@4
 0001:0000231C ILFree                  _ILFree@4
 0001:000021D4 ILGetSize               _ILGetSize@4
 0001:00001D30 InternalExtractIconListA  _InternalExtractIconListA@0
 0001:00001D44 InternalExtractIconListW  _InternalExtractIconListW@0
 0001:00002198 IsLFNDrive              _IsLFNDrive@4
 0001:00001A24 IsUserAdmin             _IsUserAdmin@0
 0001:000010C8 NTSHChangeNotifyDeregister  _NTSHChangeNotifyDeregister@4
 0001:00001088 NTSHChangeNotifyRegister  _NTSHChangeNotifyRegister@24
 0001:00001878 OleStrToStrN            _OleStrToStrN@16
 0001:00002348 OpenRegStream           _OpenRegStream@16
 0001:0000173C ParseField              _ParseFieldA@16
 0001:00002A04 PathAddBackslash        _PathAddBackslashAW@4
 0001:00002D98 PathAppend              _PathAppendA@8
 0001:000027A8 PathBuildRoot           _PathBuildRootAW@8
 0001:00002F70 PathCombine             _PathCombineAW@12
 0001:00003188 PathFileExists          _PathFileExistsAW@4
 0001:000028F0 PathFindExtension       _PathFindExtensionAW@4
 0001:00002C88 PathFindFilename        _PathFindFilenameAW@4
 0001:00003E3C PathFindOnPath          _PathFindOnPathAW@8
 0001:00003C18 PathGetArgs             _PathGetArgsAW@4
 0001:00003D88 PathGetDriveNumber      _PathGetDriveNumber@4
 0001:00003F0C PathGetExtension        _PathGetExtensionAW@12
 0001:00003104 PathIsExe               _PathIsExeAW@4
 0001:000030A8 PathIsRelative          _PathIsRelativeAW@4
 0001:000026DC PathIsRoot              _PathIsRootAW@4
 0001:0000300C PathIsUNC               _PathIsUNCAW@4
 0001:000039FC PathMatchSpec           _PathMatchSpecAW@8
 0001:00003F74 PathProcessCommand      _PathProcessCommand@16
 0001:00003AE8 PathQualify             _PathQualifyAW@4
 0001:00003C74 PathQuoteSpaces         _PathQuoteSpacesAW@4
 0001:00002B84 PathRemoveBlanks        _PathRemoveBlanksAW@4
 0001:00002CAC PathRemoveFileSpec      _PathRemoveFileSpecA@4
 0001:00003B0C PathResolve             _PathResolve@12
 0001:00003A80 PathSetDlgItemPath      _PathSetDlgItemPathAW@12
 0001:00003D64 PathUnquoteSpaces       _PathUnquoteSpacesAW@4
 0001:00003DA4 PathYetAnotherMakeUniqueName  _PathYetAnotherMakeUniqueNameA@8
 0001:00001810 PickIconDlg             _PickIconDlg@16
 0001:000019D0 ReadCabinetState        _ReadCabinetState@8
 0001:000023D4 RealShellExecuteA       _RealShellExecuteA@24
 0001:000024A0 RealShellExecuteExA     _RealShellExecuteExA@4
 0001:000024BC RealShellExecuteExW     _RealShellExecuteExW@4
 0001:000023FC RealShellExecuteW       _RealShellExecuteW@24
 0001:000024D8 RegenerateUserEnvironment  _RegenerateUserEnvironment@8
 0001:000018EC RegisterShellHook       _RegisterShellHook@8
 0001:000024F4 RestartDialog           _RestartDialog@12
 0001:00001C74 RLBuildListOfPaths      _RLBuildListOfPaths@0
 0001:00001C30 RunDLL_CallEntry16      _RunDLL_CallEntry16@20
 0001:00001908 RunFileDlg              _RunFileDlg@24
 0001:00001CB8 SetAppStartingCursor    _SetAppStartingCursor@8
 0001:000009D0 SHAbortInvokeCommand    _SHAbortInvokeCommand@0
 0001:000009E8 SHAddToRecentDocs       _SHAddToRecentDocs@8
 0001:000009A8 SHAlloc                 _SHAlloc@4
 0001:00000F9C SHAllocShared           _SHAllocShared@12
 0001:00000A04 SHAppBarMessage         _SHAppBarMessage@8
 0001:00000A20 SHBrowseForFolder       _SHBrowseForFolder@4
 0001:00000A3C SHBrowseForFolderA      _SHBrowseForFolderA@4
 0001:00000A58 SHBrowseForFolderW      _SHBrowseForFolderW@4
 0001:00000A74 SHChangeNotify          _SHChangeNotify@16
 0001:00000464 SHChangeNotifyDeregister  _SHChangeNotifyDeregister@4
 0001:0000043C SHChangeNotifyRegister  _SHChangeNotifyRegister@24
 0001:00002178 SHCloneSpecialIDList    _SHCloneSpecialIDList@12
 0001:00002388 SHCoCreateInstance      _SHCoCreateInstance@20
 0001:000008EC SHCreateDirectory       _SHCreateDirectory@8
 0001:00000940 SHCreateShellFolderViewEx  _SHCreateShellFolderViewEx@8
 0001:00003F58 SheChangeDirW           _SheChangeDirW@4
 0001:00002514 SheConvertPathW         _SheConvertPathW@8
 0001:00003F3C SheGetDirW              _SheGetDirW@8
 0001:000000CC ShellAboutA             _ShellAboutA@16
 0001:0000011C ShellAboutW             _ShellAboutW@16
 0001:00000000 ShellExecute            _ShellExecuteA@24
 0001:00000000 ShellExecuteA           _ShellExecuteA@24
 0001:00000214 ShellExecuteEx          _ShellExecuteExA@4
 0001:00000214 ShellExecuteExA         _ShellExecuteExA@4
 0001:00000230 ShellExecuteExW         _ShellExecuteExW@4
 0001:00000028 ShellExecuteW           _ShellExecuteW@24
 0001:00000344 ShellMessageBoxA        _ShellMessageBoxA
 0001:0000024C ShellMessageBoxW        _ShellMessageBoxW
 0001:00002158 Shell_GetCachedImageIndex  _Shell_GetCachedImageIndex@12
 0001:00002138 Shell_GetImageList      _Shell_GetImageList@8
 0001:000001C0 Shell_NotifyIcon        _Shell_NotifyIconA@8
 0001:000001C0 Shell_NotifyIconA       _Shell_NotifyIconA@8
 0001:000001DC Shell_NotifyIconW       _Shell_NotifyIconW@8
 0001:00000A94 SHEmptyRecycleBinA      _SHEmptyRecycleBinA@12
 0001:00000AB4 SHEmptyRecycleBinW      _SHEmptyRecycleBinW@12
 0001:00001128 SheRemoveQuotesA        _SheRemoveQuotesA@0
 0001:0000113C SheRemoveQuotesW        _SheRemoveQuotesW@0
 0001:0000110C SheSetCurDrive          _SheSetCurDrive@4
 0001:0000254C SheShortenPathA         _SheShortenPathA@8
 0001:00002530 SheShortenPathW         _SheShortenPathW@8
 0001:00000AD4 SHFileOperation         _SHFileOperationAW@4
 0001:00000AF0 SHFileOperationA        _SHFileOperationA@4
 0001:00000B0C SHFileOperationW        _SHFileOperationW@4
 0001:00000840 SHFlushClipboard        _SHFlushClipboard@0
 0001:00000B28 SHFormatDrive           _SHFormatDrive@16
 0001:00000980 SHFree                  _SHFree@4
 0001:00000B4C SHFreeNameMappings      _SHFreeNameMappings@4
 0001:00001064 SHFreeShared            _SHFreeShared@8
 0001:00000858 SHFreeUnusedLibraries   _SHFreeUnusedLibraries@0
 0001:00000B68 SHGetDataFromIDListA    _SHGetDataFromIDListA@20
 0001:00000B90 SHGetDataFromIDListW    _SHGetDataFromIDListW@20
 0001:00000BB8 SHGetDesktopFolder      _SHGetDesktopFolder@4
 0001:00000BD4 SHGetFileInfo           _SHGetFileInfoA@20
 0001:00000BD4 SHGetFileInfoA          _SHGetFileInfoA@20
 0001:00000BFC SHGetFileInfoW          _SHGetFileInfoW@20
 0001:00000C40 SHGetInstanceExplorer   _SHGetInstanceExplorer@4
 0001:00000C78 SHGetMalloc             _SHGetMalloc@4
 0001:00000C94 SHGetNewLinkInfo        _SHGetNewLinkInfo@20
 0001:00000CBC SHGetPathFromIDList     _SHGetPathFromIDListA@8
 0001:00000CBC SHGetPathFromIDListA    _SHGetPathFromIDListA@8
 0001:00000CD8 SHGetPathFromIDListW    _SHGetPathFromIDListW@8
 0001:00000480 SHGetSettings           _SHGetSettings@12
 0001:00000CF4 SHGetSpecialFolderLocation  _SHGetSpecialFolderLocation@12
 0001:00004040 SHGetSpecialFolderPath  _SHGetSpecialFolderPath@16
 0001:00000D18 SHHelpShortcuts_RunDLL  _SHHelpShortcuts_RunDLL@16
 0001:00000D3C SHHelpShortcuts_RunDLLA  _SHHelpShortcuts_RunDLLA@16
 0001:00000D60 SHHelpShortcuts_RunDLLW  _SHHelpShortcuts_RunDLLW@16
 0001:00000D84 SHLoadInProc            _SHLoadInProc@4
 0001:000008B4 SHLoadOLE               _SHLoadOLE@4
 0001:00001020 SHLockShared            _SHLockShared@8
 0001:000021B4 SHMapPIDLToSystemImageListIndex  _SHMapPIDLToSystemImageListIndex@12
 0001:00000894 SHOutOfMemoryMessageBox  _SHOutOfMemoryMessageBox@12
 0001:00000DA0 SHQueryRecycleBinA      _SHQueryRecycleBinA@8
 0001:00000DBC SHQueryRecycleBinW      _SHQueryRecycleBinW@8
 0001:00000DEC SHRegCloseKey           _SHRegCloseKey@4
 0001:00000F74 SHRegDeleteKeyA         _SHRegDeleteKeyA@8
 0001:00000F4C SHRegDeleteKeyW         _SHRegDeleteKeyW@8
 0001:000007A0 SHRegisterDragDrop      _SHRegisterDragDrop@8
 0001:00000E0C SHRegOpenKeyA           _SHRegOpenKeyA@12
 0001:00000E38 SHRegOpenKeyW           _SHRegOpenKeyW@12
 0001:00000E64 SHRegQueryValueA        _SHRegQueryValueA@16
 0001:00000E98 SHRegQueryValueExA      _SHRegQueryValueExA@24
 0001:00000ED8 SHRegQueryValueExW      _SHRegQueryValueExW@24
 0001:00000F18 SHRegQueryValueW        _SHRegQueryValueW@16
 0001:000007F8 SHRestricted            _SHRestricted@4
 0001:000007BC SHRevokeDragDrop        _SHRevokeDragDrop@4
 0001:000008D0 SHRunControlPanel       _SHRunControlPanel@8
 0001:0000095C SHSetInstanceExplorer   _SHSetInstanceExplorer@4
 0001:00000780 SHShellFolderView_Message  _SHShellFolderView_Message@12
 0001:0000236C SHSimpleIDListFromPath  _SHSimpleIDListFromPathAW@4
 0001:00001044 SHUnlockShared          _SHUnlockShared@4
 0001:00000DD8 SHUpdateRecycleBinIcon  _SHUpdateRecycleBinIcon@0
 0001:00000920 SHValidateUNC           _SHValidateUNC@12
 0001:000007D8 SHWaitForFileToOpen     _SHWaitForFileToOpen@12
 0001:00000870 SHWinHelp               _SHWinHelp@16
 0001:00001998 SignalFileOpen          _SignalFileOpen@4
 0001:00001B0C StrChrW                 _StrChrW@8
 0001:00001B3C StrCmpNIW               _StrCmpNIW@12
 0001:00001CD4 StrCpyNW                _StrCpyNW@12
 0001:00001CF8 StrNCpyW                _StrNCpyW@8
 0001:00001B8C StrRChrW                _StrRChrW@12
 0001:00001A3C StrRetToStrN            _StrRetToStrN@16
 0001:00001C88 StrToOleStr             _StrToOleStr@8
 0001:000018B4 StrToOleStrN            _StrToOleStrN@16
 0001:000019EC WriteCabinetState       _WriteCabinetState@4
 0001:00001C58 _SHELL32_654@8          _SHELL32_654@8

  Address         Publics by Name

 0000:00000000  Imp  CheckVersionFromHMOD (KERNEL32.1223)
 0000:00000000  Imp  DosExitList          (DOSCALLS.296)
 0000:00000000  Imp  memcpy               (ODINCRT.404)
 0000:00000000  Imp  RestoreOS2FS         (KERNEL32.1230)
 0000:00000000  Imp  SetFS                (KERNEL32.1227)
 0001:00001D80       SHELL_FindStringA__FPcPCc
 0000:00000000  Imp  strcat               (ODINCRT.450)
 0000:00000000  Imp  strcpy               (ODINCRT.486)
 0000:00000000  Imp  strlen               (ODINCRT.445)
 0000:00000000  Imp  strncpy              (ODINCRT.751)
 0001:00002568       VERSION_OsIsUnicode__Fv
 0000:00000000  Imp  wcschr               (ODINCRT.418)
 0000:00000000  Imp  wcscpy               (ODINCRT.448)
 0000:00000000  Imp  wcsncmp              (ODINCRT.665)
 0000:00000000  Imp  WriteLog             (KERNEL32.1202)
 0001:00001970       _ArrangeWindows@20
 0000:00000000  Imp  _AsciiToUnicode@8    (KERNEL32.1213)
 0000:00000000  Imp  _CharToOemA@8        (USER32.39)
 0001:00002030       _CheckEscapesA@8
 0001:00002044       _CheckEscapesW@8
 0001:00001310       _CommandLineToArgvW@8
 0001:00001C0C       _Control_FillCache_RunDLL@16
 0000:00000000  Imp  _CreateDirectoryA@8  (KERNEL32.152)
 0000:00000000  Imp  _ctype               (ODINCRT.425)
 0000:00000000  Imp  _ctype_upper         (ODINCRT.108)
 0000:00000000  Imp  _ctype_upperidx      (ODINCRT.526)
 0001:000019B4       _DAD_ShowDragImage@4
 0003:00000004       _dllentry
 0001:0000120C       _DLL_InitTerm
 0001:00001E28       _DoEnvironmentSubstA@8
 0001:00002018       _DoEnvironmentSubstW@8
 0001:00001150       _DragAcceptFiles@8
 0001:0000116C       _DragFinish@4
 0001:00001184       _DragQueryFileA@16
 0001:000011A8       _DragQueryFileAorW@16
 0001:000011CC       _DragQueryFileW@16
 0001:000011F0       _DragQueryPoint@8
 0001:00001B70       _DriveType@4
 0001:00002058       _DuplicateIcon@4
 0003:00000008       _edata
 0003:00000018       _end
 0001:00001930       _ExitWindowsDialog@4
 0001:000015B4       _ExtractAssociatedIconA@12
 0001:0000169C       _ExtractAssociatedIconExA@12
 0001:00001718       _ExtractAssociatedIconExW@12
 0001:000016C0       _ExtractAssociatedIconW@12
 0001:000014B8       _ExtractIconA@12
 0001:00001524       _ExtractIconExA@20
 0001:0000154C       _ExtractIconExW@20
 0001:00001D58       _ExtractIconResInfoA@0
 0001:00001D6C       _ExtractIconResInfoW@0
 0001:000014D8       _ExtractIconW@12
 0001:00001A08       _FileIconInit@4
 0001:00001574       _FindExecutableA@12
 0001:00001594       _FindExecutableW@12
 0000:00000000  Imp  _fltused             (ODINCRT.701)
 0000:00000000  Imp  _FormatMessageA@28   (KERNEL32.265)
 0000:00000000  Imp  _FormatMessageW@28   (KERNEL32.266)
 0000:00000000  Imp  _FreeAsciiString@4   (KERNEL32.1212)
 0000:00000000  Imp  _FreeEnvironmentStringsA@4 (KERNEL32.268)
 0001:00001D18       _FreeIconList@4
 0000:00000000  Imp  _GetEnvironmentStringsA@0 (KERNEL32.320)
 0000:00000000  Imp  _GetFileAttributesA@4 (KERNEL32.327)
 0000:00000000  Imp  _GetFileAttributesW@4 (KERNEL32.328)
 0001:00001834       _GetFileNameFromBrowse@28
 0000:00000000  Imp  _GetProcessHeap@0    (KERNEL32.375)
 0000:00000000  Imp  _GetVolumeInformationA@32 (KERNEL32.430)
 0000:00000000  Imp  _GlobalAlloc@8       (KERNEL32.436)
 0000:00000000  Imp  _GlobalFree@4        (KERNEL32.443)
 0000:00000000  Imp  _GlobalLock@4        (KERNEL32.447)
 0000:00000000  Imp  _GlobalUnlock@4      (KERNEL32.453)
 0000:00000000  Imp  _HeapAlloc@12        (KERNEL32.459)
 0000:00000000  Imp  _HeapFree@12         (KERNEL32.463)
 0001:00002240       _ILClone@4
 0001:00002298       _ILCombine@8
 0001:000020C8       _ILFindLastID@4
 0001:0000231C       _ILFree@4
 0001:000021D4       _ILGetSize@4
 0001:00001D30       _InternalExtractIconListA@0
 0001:00001D44       _InternalExtractIconListW@0
 0001:00002198       _IsLFNDrive@4
 0001:00003DC4       _IsLFNDriveA@4
 0001:00001A24       _IsUserAdmin@0
 0000:00000000  Imp  _LoadStringA@16      (USER32.373)
 0000:00000000  Imp  _LoadStringW@16      (USER32.374)
 0000:00000000  Imp  _LocalAlloc@8        (KERNEL32.501)
 0000:00000000  Imp  _lstrcatW@8          (KERNEL32.765)
 0000:00000000  Imp  _lstrcmpW@8          (KERNEL32.768)
 0000:00000000  Imp  _lstrcpyA@8          (KERNEL32.773)
 0000:00000000  Imp  _lstrcpynW@12        (KERNEL32.777)
 0000:00000000  Imp  _lstrcpyW@8          (KERNEL32.774)
 0000:00000000  Imp  _lstrlenA@4          (KERNEL32.779)
 0000:00000000  Imp  _lstrlenW@4          (KERNEL32.780)
 0000:00000000  Imp  _lstrncmpiA@12       (KERNEL32.887)
 0000:00000000  Imp  _MessageBoxA@16      (USER32.387)
 0000:00000000  Imp  _MessageBoxW@16      (USER32.392)
 0000:00000000  Imp  _MultiByteToWideChar@24 (KERNEL32.534)
 0001:000010C8       _NTSHChangeNotifyDeregister@4
 0001:00001088       _NTSHChangeNotifyRegister@24
 0000:00000000  Imp  _OemToCharA@8        (USER32.399)
 0001:00001878       _OleStrToStrN@16
 0001:00002348       _OpenRegStream@16
 0001:0000173C       _ParseFieldA@16
 0001:00002914       _PathAddBackslashA@4
 0001:00002A04       _PathAddBackslashAW@4
 0001:0000298C       _PathAddBackslashW@4
 0001:00002D98       _PathAppendA@8
 0001:00002700       _PathBuildRootA@8
 0001:000027A8       _PathBuildRootAW@8
 0001:00002750       _PathBuildRootW@8
 0001:00002DDC       _PathCombineA@12
 0001:00002F70       _PathCombineAW@12
 0001:00002EA8       _PathCombineW@12
 0001:00003128       _PathFileExistsA@4
 0001:00003188       _PathFileExistsAW@4
 0001:00003158       _PathFileExistsW@4
 0001:000027D4       _PathFindExtensionA@4
 0001:000028F0       _PathFindExtensionAW@4
 0001:00002860       _PathFindExtensionW@4
 0001:00002BA8       _PathFindFilenameA@4
 0001:00002C88       _PathFindFilenameAW@4
 0001:00002C14       _PathFindFilenameW@4
 0001:00003E04       _PathFindOnPathA@8
 0001:00003E3C       _PathFindOnPathAW@8
 0001:00003E20       _PathFindOnPathW@8
 0001:00003B2C       _PathGetArgsA@4
 0001:00003C18       _PathGetArgsAW@4
 0001:00003B9C       _PathGetArgsW@4
 0001:00003D88       _PathGetDriveNumber@4
 0001:00003E68       _PathGetExtensionA@12
 0001:00003F0C       _PathGetExtensionAW@12
 0001:00003EB8       _PathGetExtensionW@12
 0001:000030CC       _PathIsExeA@4
 0001:00003104       _PathIsExeAW@4
 0001:000030E8       _PathIsExeW@4
 0001:00003030       _PathIsRelativeA@4
 0001:000030A8       _PathIsRelativeAW@4
 0001:0000306C       _PathIsRelativeW@4
 0001:00002570       _PathIsRootA@4
 0001:000026DC       _PathIsRootAW@4
 0001:00002620       _PathIsRootW@4
 0001:00002FA0       _PathIsUNCA@4
 0001:0000300C       _PathIsUNCAW@4
 0001:00002FD4       _PathIsUNCW@4
 0001:000031AC       _PathMatchSpecA@8
 0001:000039FC       _PathMatchSpecAW@8
 0001:0000339C       _PathMatchSpecW@8
 0001:00003F74       _PathProcessCommand@16
 0001:00003AB0       _PathQualifyA@4
 0001:00003AE8       _PathQualifyAW@4
 0001:00003ACC       _PathQualifyW@4
 0001:00003C3C       _PathQuoteSpacesA@4
 0001:00003C74       _PathQuoteSpacesAW@4
 0001:00003C58       _PathQuoteSpacesW@4
 0001:00002A28       _PathRemoveBlanksA@4
 0001:00002B84       _PathRemoveBlanksAW@4
 0001:00002AD0       _PathRemoveBlanksW@4
 0001:00002CAC       _PathRemoveFileSpecA@4
 0001:00003B0C       _PathResolve@12
 0001:00003A28       _PathSetDlgItemPathA@12
 0001:00003A80       _PathSetDlgItemPathAW@12
 0001:00003A54       _PathSetDlgItemPathW@12
 0001:00003C98       _PathUnquoteSpacesA@4
 0001:00003D64       _PathUnquoteSpacesAW@4
 0001:00003CFC       _PathUnquoteSpacesW@4
 0001:00003DA4       _PathYetAnotherMakeUniqueNameA@8
 0000:00000000  Imp  _PGLOBAL_PTR         (ODINCRT.77)
 0001:00001810       _PickIconDlg@16
 0001:000019D0       _ReadCabinetState@8
 0001:000023D4       _RealShellExecuteA@24
 0001:000024A0       _RealShellExecuteExA@4
 0001:000024BC       _RealShellExecuteExW@4
 0001:000023FC       _RealShellExecuteW@24
 0000:00000000  Imp  _RegCloseKey@4       (ADVAPI32.127)
 0000:00000000  Imp  _RegCreateKeyExA@36  (ADVAPI32.131)
 0000:00000000  Imp  _RegDeleteKeyA@8     (ADVAPI32.134)
 0000:00000000  Imp  _RegDeleteKeyW@8     (ADVAPI32.135)
 0001:000024D8       _RegenerateUserEnvironment@8
 0000:00000000  Imp  _RegisterLxDll@12    (KERNEL32.1238)
 0001:000018EC       _RegisterShellHook@8
 0000:00000000  Imp  _RegOpenKeyA@12      (ADVAPI32.149)
 0000:00000000  Imp  _RegOpenKeyW@12      (ADVAPI32.152)
 0000:00000000  Imp  _RegQueryValueA@16   (ADVAPI32.157)
 0000:00000000  Imp  _RegQueryValueExA@24 (ADVAPI32.158)
 0000:00000000  Imp  _RegQueryValueExW@24 (ADVAPI32.159)
 0000:00000000  Imp  _RegQueryValueW@16   (ADVAPI32.160)
 0001:000024F4       _RestartDialog@12
 0001:00001C74       _RLBuildListOfPaths@0
 0001:00001C30       _RunDLL_CallEntry16@20
 0001:00001908       _RunFileDlg@24
 0000:00000000  Imp  _SendMessageA@16     (USER32.449)
 0001:00001CB8       _SetAppStartingCursor@8
 0000:00000000  Imp  _SetDlgItemTextA@12  (USER32.472)
 0000:00000000  Imp  _SetDlgItemTextW@12  (USER32.473)
 0001:000009D0       _SHAbortInvokeCommand@0
 0001:000009E8       _SHAddToRecentDocs@8
 0001:000009A8       _SHAlloc@4
 0001:00000F9C       _SHAllocShared@12
 0001:00000A04       _SHAppBarMessage@8
 0001:00000A20       _SHBrowseForFolder@4
 0001:00000A3C       _SHBrowseForFolderA@4
 0001:00000A58       _SHBrowseForFolderW@4
 0001:00000A74       _SHChangeNotify@16
 0001:00000464       _SHChangeNotifyDeregister@4
 0001:0000043C       _SHChangeNotifyRegister@24
 0001:00002178       _SHCloneSpecialIDList@12
 0001:00002388       _SHCoCreateInstance@20
 0001:000008EC       _SHCreateDirectory@8
 0001:00000940       _SHCreateShellFolderViewEx@8
 0001:00003F58       _SheChangeDirW@4
 0001:00002514       _SheConvertPathW@8
 0001:00003F3C       _SheGetDirW@8
 0001:00001C58       _SHELL32_654@8
 0001:000000CC       _ShellAboutA@16
 0001:0000011C       _ShellAboutW@16
 0001:00000000       _ShellExecuteA@24
 0001:000001F8       _ShellExecuteEx@4
 0001:00000214       _ShellExecuteExA@4
 0001:00000230       _ShellExecuteExW@4
 0001:00000028       _ShellExecuteW@24
 0001:00000344       _ShellMessageBoxA
 0001:0000024C       _ShellMessageBoxW
 0001:00002158       _Shell_GetCachedImageIndex@12
 0001:00002138       _Shell_GetImageList@8
 0001:000001C0       _Shell_NotifyIconA@8
 0001:000001DC       _Shell_NotifyIconW@8
 0001:00000A94       _SHEmptyRecycleBinA@12
 0001:00000AB4       _SHEmptyRecycleBinW@12
 0001:00001128       _SheRemoveQuotesA@0
 0001:0000113C       _SheRemoveQuotesW@0
 0001:0000110C       _SheSetCurDrive@4
 0001:0000254C       _SheShortenPathA@8
 0001:00002530       _SheShortenPathW@8
 0001:00000AF0       _SHFileOperationA@4
 0001:00000AD4       _SHFileOperationAW@4
 0001:00000B0C       _SHFileOperationW@4
 0001:00000840       _SHFlushClipboard@0
 0001:00000B28       _SHFormatDrive@16
 0001:00000980       _SHFree@4
 0001:00000B4C       _SHFreeNameMappings@4
 0001:00001064       _SHFreeShared@8
 0001:00000858       _SHFreeUnusedLibraries@0
 0001:00000B68       _SHGetDataFromIDListA@20
 0001:00000B90       _SHGetDataFromIDListW@20
 0001:00000BB8       _SHGetDesktopFolder@4
 0001:00000BD4       _SHGetFileInfoA@20
 0001:00000BFC       _SHGetFileInfoW@20
 0001:00000C40       _SHGetInstanceExplorer@4
 0001:00000C78       _SHGetMalloc@4
 0001:00000C94       _SHGetNewLinkInfo@20
 0001:00000CBC       _SHGetPathFromIDListA@8
 0001:00000CD8       _SHGetPathFromIDListW@8
 0001:00000480       _SHGetSettings@12
 0001:00000CF4       _SHGetSpecialFolderLocation@12
 0001:00004040       _SHGetSpecialFolderPath@16
 0001:00003F98       _SHGetSpecialFolderPathA@16
 0001:00003FEC       _SHGetSpecialFolderPathW@16
 0001:00000D18       _SHHelpShortcuts_RunDLL@16
 0001:00000D3C       _SHHelpShortcuts_RunDLLA@16
 0001:00000D60       _SHHelpShortcuts_RunDLLW@16
 0001:00000D84       _SHLoadInProc@4
 0001:000008B4       _SHLoadOLE@4
 0001:00001020       _SHLockShared@8
 0001:000021B4       _SHMapPIDLToSystemImageListIndex@12
 0001:00000894       _SHOutOfMemoryMessageBox@12
 0001:00000DA0       _SHQueryRecycleBinA@8
 0001:00000DBC       _SHQueryRecycleBinW@8
 0001:00000DEC       _SHRegCloseKey@4
 0001:00000F74       _SHRegDeleteKeyA@8
 0001:00000F4C       _SHRegDeleteKeyW@8
 0001:000007A0       _SHRegisterDragDrop@8
 0001:00000E0C       _SHRegOpenKeyA@12
 0001:00000E38       _SHRegOpenKeyW@12
 0001:00000E64       _SHRegQueryValueA@16
 0001:00000E98       _SHRegQueryValueExA@24
 0001:00000ED8       _SHRegQueryValueExW@24
 0001:00000F18       _SHRegQueryValueW@16
 0001:000007F8       _SHRestricted@4
 0001:000007BC       _SHRevokeDragDrop@4
 0001:000008D0       _SHRunControlPanel@8
 0001:0000095C       _SHSetInstanceExplorer@4
 0001:00000780       _SHShellFolderView_Message@12
 0001:0000236C       _SHSimpleIDListFromPathAW@4
 0001:00001044       _SHUnlockShared@4
 0001:00000DD8       _SHUpdateRecycleBinIcon@0
 0001:00000920       _SHValidateUNC@12
 0001:000007D8       _SHWaitForFileToOpen@12
 0001:00000870       _SHWinHelp@16
 0001:00001998       _SignalFileOpen@4
 0001:00001B0C       _StrChrW@8
 0001:00001B3C       _StrCmpNIW@12
 0001:00001CD4       _StrCpyNW@12
 0001:00001CF8       _StrNCpyW@8
 0001:00001B8C       _StrRChrW@12
 0001:00001A3C       _StrRetToStrN@16
 0001:00001C88       _StrToOleStr@8
 0001:000018B4       _StrToOleStrN@16
 0000:00000000  Imp  _UnicodeToAsciiString@4 (KERNEL32.1210)
 0000:00000000  Imp  _UnregisterLxDll@4   (KERNEL32.1239)
 0000:00000000  Imp  _WideCharToMultiByte@32 (KERNEL32.727)
 0001:000019EC       _WriteCabinetState@4
 0003:00000000       __ctdtused
 0003:00000014       __ctordtorCurrent
 0003:00000008       __ctordtorEnd
 0001:0000411C       __ctordtorInit
 0003:00000008       __ctordtorStart
 0001:000040E4       __ctordtorTerm

  Address         Publics by Value

 0000:00000000  Imp  _GlobalLock@4        (KERNEL32.447)
 0000:00000000  Imp  _PGLOBAL_PTR         (ODINCRT.77)
 0000:00000000  Imp  _CharToOemA@8        (USER32.39)
 0000:00000000  Imp  wcscpy               (ODINCRT.448)
 0000:00000000  Imp  _UnicodeToAsciiString@4 (KERNEL32.1210)
 0000:00000000  Imp  strcpy               (ODINCRT.486)
 0000:00000000  Imp  DosExitList          (DOSCALLS.296)
 0000:00000000  Imp  _GetFileAttributesA@4 (KERNEL32.327)
 0000:00000000  Imp  strcat               (ODINCRT.450)
 0000:00000000  Imp  _lstrcpynW@12        (KERNEL32.777)
 0000:00000000  Imp  _MultiByteToWideChar@24 (KERNEL32.534)
 0000:00000000  Imp  _MessageBoxA@16      (USER32.387)
 0000:00000000  Imp  _HeapAlloc@12        (KERNEL32.459)
 0000:00000000  Imp  _RegQueryValueA@16   (ADVAPI32.157)
 0000:00000000  Imp  _GetProcessHeap@0    (KERNEL32.375)
 0000:00000000  Imp  _RegisterLxDll@12    (KERNEL32.1238)
 0000:00000000  Imp  _AsciiToUnicode@8    (KERNEL32.1213)
 0000:00000000  Imp  _OemToCharA@8        (USER32.399)
 0000:00000000  Imp  _GlobalFree@4        (KERNEL32.443)
 0000:00000000  Imp  _LocalAlloc@8        (KERNEL32.501)
 0000:00000000  Imp  _LoadStringW@16      (USER32.374)
 0000:00000000  Imp  SetFS                (KERNEL32.1227)
 0000:00000000  Imp  _GlobalUnlock@4      (KERNEL32.453)
 0000:00000000  Imp  _GetEnvironmentStringsA@0 (KERNEL32.320)
 0000:00000000  Imp  _RegCloseKey@4       (ADVAPI32.127)
 0000:00000000  Imp  _MessageBoxW@16      (USER32.392)
 0000:00000000  Imp  _GlobalAlloc@8       (KERNEL32.436)
 0000:00000000  Imp  _RegOpenKeyW@12      (ADVAPI32.152)
 0000:00000000  Imp  _LoadStringA@16      (USER32.373)
 0000:00000000  Imp  _SendMessageA@16     (USER32.449)
 0000:00000000  Imp  _FreeEnvironmentStringsA@4 (KERNEL32.268)
 0000:00000000  Imp  _WideCharToMultiByte@32 (KERNEL32.727)
 0000:00000000  Imp  _ctype               (ODINCRT.425)
 0000:00000000  Imp  strlen               (ODINCRT.445)
 0000:00000000  Imp  memcpy               (ODINCRT.404)
 0000:00000000  Imp  wcschr               (ODINCRT.418)
 0000:00000000  Imp  _ctype_upper         (ODINCRT.108)
 0000:00000000  Imp  _lstrncmpiA@12       (KERNEL32.887)
 0000:00000000  Imp  _RegDeleteKeyW@8     (ADVAPI32.135)
 0000:00000000  Imp  _RegDeleteKeyA@8     (ADVAPI32.134)
 0000:00000000  Imp  _ctype_upperidx      (ODINCRT.526)
 0000:00000000  Imp  _lstrcatW@8          (KERNEL32.765)
 0000:00000000  Imp  WriteLog             (KERNEL32.1202)
 0000:00000000  Imp  _lstrlenW@4          (KERNEL32.780)
 0000:00000000  Imp  _SetDlgItemTextW@12  (USER32.473)
 0000:00000000  Imp  _fltused             (ODINCRT.701)
 0000:00000000  Imp  _lstrcmpW@8          (KERNEL32.768)
 0000:00000000  Imp  _SetDlgItemTextA@12  (USER32.472)
 0000:00000000  Imp  _lstrcpyA@8          (KERNEL32.773)
 0000:00000000  Imp  _RegCreateKeyExA@36  (ADVAPI32.131)
 0000:00000000  Imp  strncpy              (ODINCRT.751)
 0000:00000000  Imp  _RegOpenKeyA@12      (ADVAPI32.149)
 0000:00000000  Imp  _CreateDirectoryA@8  (KERNEL32.152)
 0000:00000000  Imp  _HeapFree@12         (KERNEL32.463)
 0000:00000000  Imp  _lstrlenA@4          (KERNEL32.779)
 0000:00000000  Imp  _RegQueryValueExW@24 (ADVAPI32.159)
 0000:00000000  Imp  _GetFileAttributesW@4 (KERNEL32.328)
 0000:00000000  Imp  _RegQueryValueExA@24 (ADVAPI32.158)
 0000:00000000  Imp  CheckVersionFromHMOD (KERNEL32.1223)
 0000:00000000  Imp  _GetVolumeInformationA@32 (KERNEL32.430)
 0000:00000000  Imp  wcsncmp              (ODINCRT.665)
 0000:00000000  Imp  _UnregisterLxDll@4   (KERNEL32.1239)
 0000:00000000  Imp  _RegQueryValueW@16   (ADVAPI32.160)
 0000:00000000  Imp  RestoreOS2FS         (KERNEL32.1230)
 0000:00000000  Imp  _lstrcpyW@8          (KERNEL32.774)
 0000:00000000  Imp  _FormatMessageA@28   (KERNEL32.265)
 0000:00000000  Imp  _FormatMessageW@28   (KERNEL32.266)
 0000:00000000  Imp  _FreeAsciiString@4   (KERNEL32.1212)
 0001:00000000       _ShellExecuteA@24
 0001:00000028       _ShellExecuteW@24
 0001:000000CC       _ShellAboutA@16
 0001:0000011C       _ShellAboutW@16
 0001:000001C0       _Shell_NotifyIconA@8
 0001:000001DC       _Shell_NotifyIconW@8
 0001:000001F8       _ShellExecuteEx@4
 0001:00000214       _ShellExecuteExA@4
 0001:00000230       _ShellExecuteExW@4
 0001:0000024C       _ShellMessageBoxW
 0001:00000344       _ShellMessageBoxA
 0001:0000043C       _SHChangeNotifyRegister@24
 0001:00000464       _SHChangeNotifyDeregister@4
 0001:00000480       _SHGetSettings@12
 0001:00000780       _SHShellFolderView_Message@12
 0001:000007A0       _SHRegisterDragDrop@8
 0001:000007BC       _SHRevokeDragDrop@4
 0001:000007D8       _SHWaitForFileToOpen@12
 0001:000007F8       _SHRestricted@4
 0001:00000840       _SHFlushClipboard@0
 0001:00000858       _SHFreeUnusedLibraries@0
 0001:00000870       _SHWinHelp@16
 0001:00000894       _SHOutOfMemoryMessageBox@12
 0001:000008B4       _SHLoadOLE@4
 0001:000008D0       _SHRunControlPanel@8
 0001:000008EC       _SHCreateDirectory@8
 0001:00000920       _SHValidateUNC@12
 0001:00000940       _SHCreateShellFolderViewEx@8
 0001:0000095C       _SHSetInstanceExplorer@4
 0001:00000980       _SHFree@4
 0001:000009A8       _SHAlloc@4
 0001:000009D0       _SHAbortInvokeCommand@0
 0001:000009E8       _SHAddToRecentDocs@8
 0001:00000A04       _SHAppBarMessage@8
 0001:00000A20       _SHBrowseForFolder@4
 0001:00000A3C       _SHBrowseForFolderA@4
 0001:00000A58       _SHBrowseForFolderW@4
 0001:00000A74       _SHChangeNotify@16
 0001:00000A94       _SHEmptyRecycleBinA@12
 0001:00000AB4       _SHEmptyRecycleBinW@12
 0001:00000AD4       _SHFileOperationAW@4
 0001:00000AF0       _SHFileOperationA@4
 0001:00000B0C       _SHFileOperationW@4
 0001:00000B28       _SHFormatDrive@16
 0001:00000B4C       _SHFreeNameMappings@4
 0001:00000B68       _SHGetDataFromIDListA@20
 0001:00000B90       _SHGetDataFromIDListW@20
 0001:00000BB8       _SHGetDesktopFolder@4
 0001:00000BD4       _SHGetFileInfoA@20
 0001:00000BFC       _SHGetFileInfoW@20
 0001:00000C40       _SHGetInstanceExplorer@4
 0001:00000C78       _SHGetMalloc@4
 0001:00000C94       _SHGetNewLinkInfo@20
 0001:00000CBC       _SHGetPathFromIDListA@8
 0001:00000CD8       _SHGetPathFromIDListW@8
 0001:00000CF4       _SHGetSpecialFolderLocation@12
 0001:00000D18       _SHHelpShortcuts_RunDLL@16
 0001:00000D3C       _SHHelpShortcuts_RunDLLA@16
 0001:00000D60       _SHHelpShortcuts_RunDLLW@16
 0001:00000D84       _SHLoadInProc@4
 0001:00000DA0       _SHQueryRecycleBinA@8
 0001:00000DBC       _SHQueryRecycleBinW@8
 0001:00000DD8       _SHUpdateRecycleBinIcon@0
 0001:00000DEC       _SHRegCloseKey@4
 0001:00000E0C       _SHRegOpenKeyA@12
 0001:00000E38       _SHRegOpenKeyW@12
 0001:00000E64       _SHRegQueryValueA@16
 0001:00000E98       _SHRegQueryValueExA@24
 0001:00000ED8       _SHRegQueryValueExW@24
 0001:00000F18       _SHRegQueryValueW@16
 0001:00000F4C       _SHRegDeleteKeyW@8
 0001:00000F74       _SHRegDeleteKeyA@8
 0001:00000F9C       _SHAllocShared@12
 0001:00001020       _SHLockShared@8
 0001:00001044       _SHUnlockShared@4
 0001:00001064       _SHFreeShared@8
 0001:00001088       _NTSHChangeNotifyRegister@24
 0001:000010C8       _NTSHChangeNotifyDeregister@4
 0001:0000110C       _SheSetCurDrive@4
 0001:00001128       _SheRemoveQuotesA@0
 0001:0000113C       _SheRemoveQuotesW@0
 0001:00001150       _DragAcceptFiles@8
 0001:0000116C       _DragFinish@4
 0001:00001184       _DragQueryFileA@16
 0001:000011A8       _DragQueryFileAorW@16
 0001:000011CC       _DragQueryFileW@16
 0001:000011F0       _DragQueryPoint@8
 0001:0000120C       _DLL_InitTerm
 0001:00001310       _CommandLineToArgvW@8
 0001:000014B8       _ExtractIconA@12
 0001:000014D8       _ExtractIconW@12
 0001:00001524       _ExtractIconExA@20
 0001:0000154C       _ExtractIconExW@20
 0001:00001574       _FindExecutableA@12
 0001:00001594       _FindExecutableW@12
 0001:000015B4       _ExtractAssociatedIconA@12
 0001:0000169C       _ExtractAssociatedIconExA@12
 0001:000016C0       _ExtractAssociatedIconW@12
 0001:00001718       _ExtractAssociatedIconExW@12
 0001:0000173C       _ParseFieldA@16
 0001:00001810       _PickIconDlg@16
 0001:00001834       _GetFileNameFromBrowse@28
 0001:00001878       _OleStrToStrN@16
 0001:000018B4       _StrToOleStrN@16
 0001:000018EC       _RegisterShellHook@8
 0001:00001908       _RunFileDlg@24
 0001:00001930       _ExitWindowsDialog@4
 0001:00001970       _ArrangeWindows@20
 0001:00001998       _SignalFileOpen@4
 0001:000019B4       _DAD_ShowDragImage@4
 0001:000019D0       _ReadCabinetState@8
 0001:000019EC       _WriteCabinetState@4
 0001:00001A08       _FileIconInit@4
 0001:00001A24       _IsUserAdmin@0
 0001:00001A3C       _StrRetToStrN@16
 0001:00001B0C       _StrChrW@8
 0001:00001B3C       _StrCmpNIW@12
 0001:00001B70       _DriveType@4
 0001:00001B8C       _StrRChrW@12
 0001:00001C0C       _Control_FillCache_RunDLL@16
 0001:00001C30       _RunDLL_CallEntry16@20
 0001:00001C58       _SHELL32_654@8
 0001:00001C74       _RLBuildListOfPaths@0
 0001:00001C88       _StrToOleStr@8
 0001:00001CB8       _SetAppStartingCursor@8
 0001:00001CD4       _StrCpyNW@12
 0001:00001CF8       _StrNCpyW@8
 0001:00001D18       _FreeIconList@4
 0001:00001D30       _InternalExtractIconListA@0
 0001:00001D44       _InternalExtractIconListW@0
 0001:00001D58       _ExtractIconResInfoA@0
 0001:00001D6C       _ExtractIconResInfoW@0
 0001:00001D80       SHELL_FindStringA__FPcPCc
 0001:00001E28       _DoEnvironmentSubstA@8
 0001:00002018       _DoEnvironmentSubstW@8
 0001:00002030       _CheckEscapesA@8
 0001:00002044       _CheckEscapesW@8
 0001:00002058       _DuplicateIcon@4
 0001:000020C8       _ILFindLastID@4
 0001:00002138       _Shell_GetImageList@8
 0001:00002158       _Shell_GetCachedImageIndex@12
 0001:00002178       _SHCloneSpecialIDList@12
 0001:00002198       _IsLFNDrive@4
 0001:000021B4       _SHMapPIDLToSystemImageListIndex@12
 0001:000021D4       _ILGetSize@4
 0001:00002240       _ILClone@4
 0001:00002298       _ILCombine@8
 0001:0000231C       _ILFree@4
 0001:00002348       _OpenRegStream@16
 0001:0000236C       _SHSimpleIDListFromPathAW@4
 0001:00002388       _SHCoCreateInstance@20
 0001:000023D4       _RealShellExecuteA@24
 0001:000023FC       _RealShellExecuteW@24
 0001:000024A0       _RealShellExecuteExA@4
 0001:000024BC       _RealShellExecuteExW@4
 0001:000024D8       _RegenerateUserEnvironment@8
 0001:000024F4       _RestartDialog@12
 0001:00002514       _SheConvertPathW@8
 0001:00002530       _SheShortenPathW@8
 0001:0000254C       _SheShortenPathA@8
 0001:00002568       VERSION_OsIsUnicode__Fv
 0001:00002570       _PathIsRootA@4
 0001:00002620       _PathIsRootW@4
 0001:000026DC       _PathIsRootAW@4
 0001:00002700       _PathBuildRootA@8
 0001:00002750       _PathBuildRootW@8
 0001:000027A8       _PathBuildRootAW@8
 0001:000027D4       _PathFindExtensionA@4
 0001:00002860       _PathFindExtensionW@4
 0001:000028F0       _PathFindExtensionAW@4
 0001:00002914       _PathAddBackslashA@4
 0001:0000298C       _PathAddBackslashW@4
 0001:00002A04       _PathAddBackslashAW@4
 0001:00002A28       _PathRemoveBlanksA@4
 0001:00002AD0       _PathRemoveBlanksW@4
 0001:00002B84       _PathRemoveBlanksAW@4
 0001:00002BA8       _PathFindFilenameA@4
 0001:00002C14       _PathFindFilenameW@4
 0001:00002C88       _PathFindFilenameAW@4
 0001:00002CAC       _PathRemoveFileSpecA@4
 0001:00002D98       _PathAppendA@8
 0001:00002DDC       _PathCombineA@12
 0001:00002EA8       _PathCombineW@12
 0001:00002F70       _PathCombineAW@12
 0001:00002FA0       _PathIsUNCA@4
 0001:00002FD4       _PathIsUNCW@4
 0001:0000300C       _PathIsUNCAW@4
 0001:00003030       _PathIsRelativeA@4
 0001:0000306C       _PathIsRelativeW@4
 0001:000030A8       _PathIsRelativeAW@4
 0001:000030CC       _PathIsExeA@4
 0001:000030E8       _PathIsExeW@4
 0001:00003104       _PathIsExeAW@4
 0001:00003128       _PathFileExistsA@4
 0001:00003158       _PathFileExistsW@4
 0001:00003188       _PathFileExistsAW@4
 0001:000031AC       _PathMatchSpecA@8
 0001:0000339C       _PathMatchSpecW@8
 0001:000039FC       _PathMatchSpecAW@8
 0001:00003A28       _PathSetDlgItemPathA@12
 0001:00003A54       _PathSetDlgItemPathW@12
 0001:00003A80       _PathSetDlgItemPathAW@12
 0001:00003AB0       _PathQualifyA@4
 0001:00003ACC       _PathQualifyW@4
 0001:00003AE8       _PathQualifyAW@4
 0001:00003B0C       _PathResolve@12
 0001:00003B2C       _PathGetArgsA@4
 0001:00003B9C       _PathGetArgsW@4
 0001:00003C18       _PathGetArgsAW@4
 0001:00003C3C       _PathQuoteSpacesA@4
 0001:00003C58       _PathQuoteSpacesW@4
 0001:00003C74       _PathQuoteSpacesAW@4
 0001:00003C98       _PathUnquoteSpacesA@4
 0001:00003CFC       _PathUnquoteSpacesW@4
 0001:00003D64       _PathUnquoteSpacesAW@4
 0001:00003D88       _PathGetDriveNumber@4
 0001:00003DA4       _PathYetAnotherMakeUniqueNameA@8
 0001:00003DC4       _IsLFNDriveA@4
 0001:00003E04       _PathFindOnPathA@8
 0001:00003E20       _PathFindOnPathW@8
 0001:00003E3C       _PathFindOnPathAW@8
 0001:00003E68       _PathGetExtensionA@12
 0001:00003EB8       _PathGetExtensionW@12
 0001:00003F0C       _PathGetExtensionAW@12
 0001:00003F3C       _SheGetDirW@8
 0001:00003F58       _SheChangeDirW@4
 0001:00003F74       _PathProcessCommand@16
 0001:00003F98       _SHGetSpecialFolderPathA@16
 0001:00003FEC       _SHGetSpecialFolderPathW@16
 0001:00004040       _SHGetSpecialFolderPath@16
 0001:000040E4       __ctordtorTerm
 0001:0000411C       __ctordtorInit
 0003:00000000       __ctdtused
 0003:00000004       _dllentry
 0003:00000008       __ctordtorStart
 0003:00000008       __ctordtorEnd
 0003:00000008       _edata
 0003:00000014       __ctordtorCurrent
 0003:00000018       _end

Program entry point at 0001:0000120C
